; Function Attrs: mustprogress nounwind uwtable
define dso_local noundef i32 @_ZN5clang13SourceManager12createFileIDESt10unique_ptrIN4llvm12MemoryBufferESt14default_deleteIS3_EENS_6SrcMgr18CharacteristicKindEijNS_14SourceLocationE(ptr noundef nonnull align 8 dereferenceable(696) %0, ptr noundef captures(none) %1, i32 noundef %2, i32 noundef %3, i32 noundef %4, i32 %5) local_unnamed_addr #1 align 2 {
  %7 = alloca %"class.std::unique_ptr", align 8
  %8 = load ptr, ptr %1, align 8
  %9 = load ptr, ptr %8, align 8
  %10 = getelementptr inbounds nuw i8, ptr %9, i64 16
  %11 = load ptr, ptr %10, align 8
  %12 = tail call { ptr, i64 } %11(ptr noundef nonnull align 8 dereferenceable(24) %8) #26
  %13 = extractvalue { ptr, i64 } %12, 0
  %14 = extractvalue { ptr, i64 } %12, 1
  %15 = load i64, ptr %1, align 8
  store i64 %15, ptr %7, align 8
  store ptr null, ptr %1, align 8
  %16 = call noundef nonnull align 8 dereferenceable(49) ptr @_ZN5clang13SourceManager27createMemBufferContentCacheESt10unique_ptrIN4llvm12MemoryBufferESt14default_deleteIS3_EE(ptr noundef nonnull align 8 dereferenceable(696) %0, ptr noundef nonnull %7)
  %17 = tail call i32 @_ZN5clang13SourceManager16createFileIDImplERNS_6SrcMgr12ContentCacheEN4llvm9StringRefENS_14SourceLocationENS1_18CharacteristicKindEij(ptr noundef nonnull align 8 dereferenceable(696) %0, ptr noundef nonnull align 8 dereferenceable(49) %16, ptr %13, i64 %14, i32 %5, i32 noundef %2, i32 noundef %3, i32 noundef %4)
  %18 = load ptr, ptr %7, align 8
  %.not.i = icmp eq ptr %18, null
  br i1 %.not.i, label %_ZNSt10unique_ptrIN4llvm12MemoryBufferESt14default_deleteIS1_EED2Ev.exit, label %_ZNKSt14default_deleteIN4llvm12MemoryBufferEEclEPS1_.exit.i

_ZNKSt14default_deleteIN4llvm12MemoryBufferEEclEPS1_.exit.i: ; preds = %6
  %19 = load ptr, ptr %18, align 8
  %20 = getelementptr inbounds nuw i8, ptr %19, i64 8
  %21 = load ptr, ptr %20, align 8
  tail call void %21(ptr noundef nonnull align 8 dereferenceable(24) %18) #26
  br label %_ZNSt10unique_ptrIN4llvm12MemoryBufferESt14default_deleteIS1_EED2Ev.exit

_ZNSt10unique_ptrIN4llvm12MemoryBufferESt14default_deleteIS1_EED2Ev.exit: ; preds = %6, %_ZNKSt14default_deleteIN4llvm12MemoryBufferEEclEPS1_.exit.i
  ret i32 %17
}